; ModuleID = 'source-C-CXX/41/1790.cpp'
source_filename = "source-C-CXX/41/1790.cpp"
target datalayout = "e-m:e-p270:32:32-p271:32:32-p272:64:64-i64:64-f80:128-n8:16:32:64-S128"
target triple = "x86_64-pc-linux-gnu"

%"class.std::ios_base::Init" = type { i8 }
%"class.std::basic_istream" = type { i32 (...)**, i64, %"class.std::basic_ios" }
%"class.std::basic_ios" = type { %"class.std::ios_base", %"class.std::basic_ostream"*, i8, i8, %"class.std::basic_streambuf"*, %"class.std::ctype"*, %"class.std::num_put"*, %"class.std::num_get"* }
%"class.std::ios_base" = type { i32 (...)**, i64, i64, i32, i32, i32, %"struct.std::ios_base::_Callback_list"*, %"struct.std::ios_base::_Words", [8 x %"struct.std::ios_base::_Words"], i32, %"struct.std::ios_base::_Words"*, %"class.std::locale" }
%"struct.std::ios_base::_Callback_list" = type { %"struct.std::ios_base::_Callback_list"*, void (i32, %"class.std::ios_base"*, i32)*, i32, i32 }
%"struct.std::ios_base::_Words" = type { i8*, i64 }
%"class.std::locale" = type { %"class.std::locale::_Impl"* }
%"class.std::locale::_Impl" = type { i32, %"class.std::locale::facet"**, i64, %"class.std::locale::facet"**, i8** }
%"class.std::locale::facet" = type <{ i32 (...)**, i32, [4 x i8] }>
%"class.std::basic_ostream" = type { i32 (...)**, %"class.std::basic_ios" }
%"class.std::basic_streambuf" = type { i32 (...)**, i8*, i8*, i8*, i8*, i8*, i8*, %"class.std::locale" }
%"class.std::ctype" = type <{ %"class.std::locale::facet.base", [4 x i8], %struct.__locale_struct*, i8, [7 x i8], i32*, i32*, i16*, i8, [256 x i8], [256 x i8], i8, [6 x i8] }>
%"class.std::locale::facet.base" = type <{ i32 (...)**, i32 }>
%struct.__locale_struct = type { [13 x %struct.__locale_data*], i16*, i32*, i32*, [13 x i8*] }
%struct.__locale_data = type opaque
%"class.std::num_put" = type { %"class.std::locale::facet.base", [4 x i8] }
%"class.std::num_get" = type { %"class.std::locale::facet.base", [4 x i8] }

@_ZStL8__ioinit = internal global %"class.std::ios_base::Init" zeroinitializer, align 1
@__dso_handle = external hidden global i8
@_ZSt3cin = external global %"class.std::basic_istream", align 8
@_ZSt4cout = external global %"class.std::basic_ostream", align 8
@.str = private unnamed_addr constant [2 x i8] c" \00", align 1
@llvm.global_ctors = appending global [1 x { i32, void ()*, i8* }] [{ i32, void ()*, i8* } { i32 65535, void ()* @_GLOBAL__sub_I_1790.cpp, i8* null }]

declare void @_ZNSt8ios_base4InitC1Ev(%"class.std::ios_base::Init"* nonnull align 1 dereferenceable(1)) unnamed_addr #0

; Function Attrs: nounwind
declare void @_ZNSt8ios_base4InitD1Ev(%"class.std::ios_base::Init"* nonnull align 1 dereferenceable(1)) unnamed_addr #1

; Function Attrs: nofree nounwind
declare i32 @__cxa_atexit(void (i8*)*, i8*, i8*) local_unnamed_addr #2

; Function Attrs: mustprogress norecurse sspstrong uwtable
define dso_local i32 @main() local_unnamed_addr #3 {
  %1 = alloca i32, align 4
  %2 = alloca [100000 x i32], align 16
  %3 = alloca i32, align 4
  %4 = bitcast i32* %1 to i8*
  call void @llvm.lifetime.start.p0i8(i64 4, i8* nonnull %4) #6
  %5 = bitcast [100000 x i32]* %2 to i8*
  call void @llvm.lifetime.start.p0i8(i64 400000, i8* nonnull %5) #6
  %6 = bitcast i32* %3 to i8*
  call void @llvm.lifetime.start.p0i8(i64 4, i8* nonnull %6) #6
  %7 = call nonnull align 8 dereferenceable(16) %"class.std::basic_istream"* @_ZNSirsERi(%"class.std::basic_istream"* nonnull align 8 dereferenceable(16) @_ZSt3cin, i32* nonnull align 4 dereferenceable(4) %1)
  %8 = load i32, i32* %1, align 4, !tbaa !5
  %9 = icmp sgt i32 %8, 0
  br i1 %9, label %15, label %10

10:                                               ; preds = %15, %0
  %11 = call nonnull align 8 dereferenceable(16) %"class.std::basic_istream"* @_ZNSirsERi(%"class.std::basic_istream"* nonnull align 8 dereferenceable(16) @_ZSt3cin, i32* nonnull align 4 dereferenceable(4) %3)
  %12 = load i32, i32* %1, align 4, !tbaa !5
  %13 = load i32, i32* %3, align 4
  %14 = icmp sgt i32 %12, 0
  br i1 %14, label %30, label %23

15:                                               ; preds = %0, %15
  %16 = phi i64 [ %19, %15 ], [ 0, %0 ]
  %17 = getelementptr inbounds [100000 x i32], [100000 x i32]* %2, i64 0, i64 %16
  %18 = call nonnull align 8 dereferenceable(16) %"class.std::basic_istream"* @_ZNSirsERi(%"class.std::basic_istream"* nonnull align 8 dereferenceable(16) @_ZSt3cin, i32* nonnull align 4 dereferenceable(4) %17)
  %19 = add nuw nsw i64 %16, 1
  %20 = load i32, i32* %1, align 4, !tbaa !5
  %21 = sext i32 %20 to i64
  %22 = icmp slt i64 %19, %21
  br i1 %22, label %15, label %10, !llvm.loop !9

23:                                               ; preds = %116, %10
  %24 = phi i32 [ 0, %10 ], [ %117, %116 ]
  %25 = xor i32 %24, -1
  %26 = add i32 %12, %25
  %27 = icmp sgt i32 %26, 0
  br i1 %27, label %127, label %28

28:                                               ; preds = %23
  %29 = sext i32 %26 to i64
  br label %122

30:                                               ; preds = %10, %116
  %31 = phi i32 [ %119, %116 ], [ 0, %10 ]
  %32 = phi i32 [ %117, %116 ], [ 0, %10 ]
  %33 = sext i32 %31 to i64
  %34 = getelementptr inbounds [100000 x i32], [100000 x i32]* %2, i64 0, i64 %33
  %35 = load i32, i32* %34, align 4, !tbaa !5
  %36 = icmp eq i32 %35, %13
  br i1 %36, label %37, label %116

37:                                               ; preds = %30
  %38 = xor i32 %32, -1
  %39 = add i32 %12, %38
  %40 = icmp slt i32 %31, %39
  br i1 %40, label %41, label %106

41:                                               ; preds = %37
  %42 = sext i32 %39 to i64
  %43 = sub nsw i64 %42, %33
  %44 = icmp ult i64 %43, 8
  br i1 %44, label %104, label %45

45:                                               ; preds = %41
  %46 = and i64 %43, -8
  %47 = add nsw i64 %46, %33
  %48 = add nsw i64 %46, -8
  %49 = lshr exact i64 %48, 3
  %50 = add nuw nsw i64 %49, 1
  %51 = and i64 %50, 1
  %52 = icmp eq i64 %48, 0
  br i1 %52, label %86, label %53

53:                                               ; preds = %45
  %54 = and i64 %50, 4611686018427387902
  br label %55

55:                                               ; preds = %55, %53
  %56 = phi i64 [ 0, %53 ], [ %83, %55 ]
  %57 = phi i64 [ %54, %53 ], [ %84, %55 ]
  %58 = add i64 %56, %33
  %59 = add nsw i64 %58, 1
  %60 = getelementptr inbounds [100000 x i32], [100000 x i32]* %2, i64 0, i64 %59
  %61 = bitcast i32* %60 to <4 x i32>*
  %62 = load <4 x i32>, <4 x i32>* %61, align 4, !tbaa !5
  %63 = getelementptr inbounds i32, i32* %60, i64 4
  %64 = bitcast i32* %63 to <4 x i32>*
  %65 = load <4 x i32>, <4 x i32>* %64, align 4, !tbaa !5
  %66 = getelementptr inbounds [100000 x i32], [100000 x i32]* %2, i64 0, i64 %58
  %67 = bitcast i32* %66 to <4 x i32>*
  store <4 x i32> %62, <4 x i32>* %67, align 4, !tbaa !5
  %68 = getelementptr inbounds i32, i32* %66, i64 4
  %69 = bitcast i32* %68 to <4 x i32>*
  store <4 x i32> %65, <4 x i32>* %69, align 4, !tbaa !5
  %70 = or i64 %56, 8
  %71 = add i64 %70, %33
  %72 = add nsw i64 %71, 1
  %73 = getelementptr inbounds [100000 x i32], [100000 x i32]* %2, i64 0, i64 %72
  %74 = bitcast i32* %73 to <4 x i32>*
  %75 = load <4 x i32>, <4 x i32>* %74, align 4, !tbaa !5
  %76 = getelementptr inbounds i32, i32* %73, i64 4
  %77 = bitcast i32* %76 to <4 x i32>*
  %78 = load <4 x i32>, <4 x i32>* %77, align 4, !tbaa !5
  %79 = getelementptr inbounds [100000 x i32], [100000 x i32]* %2, i64 0, i64 %71
  %80 = bitcast i32* %79 to <4 x i32>*
  store <4 x i32> %75, <4 x i32>* %80, align 4, !tbaa !5
  %81 = getelementptr inbounds i32, i32* %79, i64 4
  %82 = bitcast i32* %81 to <4 x i32>*
  store <4 x i32> %78, <4 x i32>* %82, align 4, !tbaa !5
  %83 = add nuw i64 %56, 16
  %84 = add i64 %57, -2
  %85 = icmp eq i64 %84, 0
  br i1 %85, label %86, label %55, !llvm.loop !11

86:                                               ; preds = %55, %45
  %87 = phi i64 [ 0, %45 ], [ %83, %55 ]
  %88 = icmp eq i64 %51, 0
  br i1 %88, label %102, label %89

89:                                               ; preds = %86
  %90 = add i64 %87, %33
  %91 = add nsw i64 %90, 1
  %92 = getelementptr inbounds [100000 x i32], [100000 x i32]* %2, i64 0, i64 %91
  %93 = bitcast i32* %92 to <4 x i32>*
  %94 = load <4 x i32>, <4 x i32>* %93, align 4, !tbaa !5
  %95 = getelementptr inbounds i32, i32* %92, i64 4
  %96 = bitcast i32* %95 to <4 x i32>*
  %97 = load <4 x i32>, <4 x i32>* %96, align 4, !tbaa !5
  %98 = getelementptr inbounds [100000 x i32], [100000 x i32]* %2, i64 0, i64 %90
  %99 = bitcast i32* %98 to <4 x i32>*
  store <4 x i32> %94, <4 x i32>* %99, align 4, !tbaa !5
  %100 = getelementptr inbounds i32, i32* %98, i64 4
  %101 = bitcast i32* %100 to <4 x i32>*
  store <4 x i32> %97, <4 x i32>* %101, align 4, !tbaa !5
  br label %102

102:                                              ; preds = %86, %89
  %103 = icmp eq i64 %43, %46
  br i1 %103, label %106, label %104

104:                                              ; preds = %41, %102
  %105 = phi i64 [ %33, %41 ], [ %47, %102 ]
  br label %109

106:                                              ; preds = %109, %102, %37
  %107 = add nsw i32 %32, 1
  %108 = add nsw i32 %31, -1
  br label %116

109:                                              ; preds = %104, %109
  %110 = phi i64 [ %111, %109 ], [ %105, %104 ]
  %111 = add nsw i64 %110, 1
  %112 = getelementptr inbounds [100000 x i32], [100000 x i32]* %2, i64 0, i64 %111
  %113 = load i32, i32* %112, align 4, !tbaa !5
  %114 = getelementptr inbounds [100000 x i32], [100000 x i32]* %2, i64 0, i64 %110
  store i32 %113, i32* %114, align 4, !tbaa !5
  %115 = icmp eq i64 %111, %42
  br i1 %115, label %106, label %109, !llvm.loop !13

116:                                              ; preds = %30, %106
  %117 = phi i32 [ %107, %106 ], [ %32, %30 ]
  %118 = phi i32 [ %108, %106 ], [ %31, %30 ]
  %119 = add nsw i32 %118, 1
  %120 = sub nsw i32 %12, %117
  %121 = icmp slt i32 %119, %120
  br i1 %121, label %30, label %23, !llvm.loop !15

122:                                              ; preds = %127, %28
  %123 = phi i64 [ %29, %28 ], [ %136, %127 ]
  %124 = getelementptr inbounds [100000 x i32], [100000 x i32]* %2, i64 0, i64 %123
  %125 = load i32, i32* %124, align 4, !tbaa !5
  %126 = call nonnull align 8 dereferenceable(8) %"class.std::basic_ostream"* @_ZNSolsEi(%"class.std::basic_ostream"* nonnull align 8 dereferenceable(8) @_ZSt4cout, i32 %125)
  call void @llvm.lifetime.end.p0i8(i64 4, i8* nonnull %6) #6
  call void @llvm.lifetime.end.p0i8(i64 400000, i8* nonnull %5) #6
  call void @llvm.lifetime.end.p0i8(i64 4, i8* nonnull %4) #6
  ret i32 0

127:                                              ; preds = %23, %127
  %128 = phi i64 [ %133, %127 ], [ 0, %23 ]
  %129 = getelementptr inbounds [100000 x i32], [100000 x i32]* %2, i64 0, i64 %128
  %130 = load i32, i32* %129, align 4, !tbaa !5
  %131 = call nonnull align 8 dereferenceable(8) %"class.std::basic_ostream"* @_ZNSolsEi(%"class.std::basic_ostream"* nonnull align 8 dereferenceable(8) @_ZSt4cout, i32 %130)
  %132 = call nonnull align 8 dereferenceable(8) %"class.std::basic_ostream"* @_ZSt16__ostream_insertIcSt11char_traitsIcEERSt13basic_ostreamIT_T0_ES6_PKS3_l(%"class.std::basic_ostream"* nonnull align 8 dereferenceable(8) %131, i8* nonnull getelementptr inbounds ([2 x i8], [2 x i8]* @.str, i64 0, i64 0), i64 1)
  %133 = add nuw nsw i64 %128, 1
  %134 = load i32, i32* %1, align 4, !tbaa !5
  %135 = add i32 %134, %25
  %136 = sext i32 %135 to i64
  %137 = icmp slt i64 %133, %136
  br i1 %137, label %127, label %122, !llvm.loop !16
}

; Function Attrs: argmemonly mustprogress nofree nosync nounwind willreturn
declare void @llvm.lifetime.start.p0i8(i64 immarg, i8* nocapture) #4

declare nonnull align 8 dereferenceable(16) %"class.std::basic_istream"* @_ZNSirsERi(%"class.std::basic_istream"* nonnull align 8 dereferenceable(16), i32* nonnull align 4 dereferenceable(4)) local_unnamed_addr #0

; Function Attrs: argmemonly mustprogress nofree nosync nounwind willreturn
declare void @llvm.lifetime.end.p0i8(i64 immarg, i8* nocapture) #4

declare nonnull align 8 dereferenceable(8) %"class.std::basic_ostream"* @_ZNSolsEi(%"class.std::basic_ostream"* nonnull align 8 dereferenceable(8), i32) local_unnamed_addr #0

declare nonnull align 8 dereferenceable(8) %"class.std::basic_ostream"* @_ZSt16__ostream_insertIcSt11char_traitsIcEERSt13basic_ostreamIT_T0_ES6_PKS3_l(%"class.std::basic_ostream"* nonnull align 8 dereferenceable(8), i8*, i64) local_unnamed_addr #0

; Function Attrs: sspstrong uwtable
define internal void @_GLOBAL__sub_I_1790.cpp() #5 section ".text.startup" {
  tail call void @_ZNSt8ios_base4InitC1Ev(%"class.std::ios_base::Init"* nonnull align 1 dereferenceable(1) @_ZStL8__ioinit)
  %1 = tail call i32 @__cxa_atexit(void (i8*)* bitcast (void (%"class.std::ios_base::Init"*)* @_ZNSt8ios_base4InitD1Ev to void (i8*)*), i8* getelementptr inbounds (%"class.std::ios_base::Init", %"class.std::ios_base::Init"* @_ZStL8__ioinit, i64 0, i32 0), i8* nonnull @__dso_handle) #6
  ret void
}


!llvm.module.flags = !{!0, !1, !2, !3}
!llvm.ident = !{!4}

!0 = !{i32 1, !"wchar_size", i32 4}
!1 = !{i32 7, !"PIC Level", i32 2}
!2 = !{i32 7, !"PIE Level", i32 2}
!3 = !{i32 7, !"uwtable", i32 1}
!4 = !{!"clang version 13.0.0"}
!5 = !{!6, !6, i64 0}
!6 = !{!"int", !7, i64 0}
!7 = !{!"omnipotent char", !8, i64 0}
!8 = !{!"Simple C++ TBAA"}
!9 = distinct !{!9, !10}
!10 = !{!"llvm.loop.mustprogress"}
!11 = distinct !{!11, !10, !12}
!12 = !{!"llvm.loop.isvectorized", i32 1}
!13 = distinct !{!13, !10, !14, !12}
!14 = !{!"llvm.loop.unroll.runtime.disable"}
!15 = distinct !{!15, !10}
!16 = distinct !{!16, !10}
